Certificate:
    Data:
        Version: 3 (0x2)
        Serial Number: 1 (0x1)
        Signature Algorithm: sha256WithRSAEncryption
        Issuer: O=Vectorized, CN=Vectorized CA
        Validity
            Not Before: Oct 26 13:20:14 2021 GMT
            Not After : Oct 26 13:20:14 2022 GMT
        Subject: O=Vectorized
        Subject Public Key Info:
            Public Key Algorithm: rsaEncryption
                RSA Public-Key: (2048 bit)
                Modulus:
                    00:cb:e6:11:4b:8f:2e:89:c2:b7:4e:b0:23:17:77:
                    69:50:ec:59:1e:a2:82:c1:3b:ff:9c:59:79:8b:7b:
                    06:74:8a:85:7a:fe:53:1b:eb:2b:d3:06:ad:95:5b:
                    74:5c:70:cd:7b:cd:76:b9:bc:49:f8:d5:63:3e:ad:
                    eb:b7:f7:5d:40:48:08:9c:8a:95:66:e1:ce:58:f6:
                    69:ac:5b:1e:52:9a:d8:ff:2b:ad:19:6d:2e:1b:ec:
                    f9:5b:91:fb:37:b9:93:ac:a2:02:9e:0a:af:72:fd:
                    b2:37:11:44:23:ad:81:ae:1d:70:f8:7f:fe:c6:93:
                    69:d9:e0:7a:a2:3b:1d:54:96:35:59:c4:2a:89:61:
                    3e:ee:bd:a1:76:3b:c8:60:66:f1:b5:86:7e:24:d9:
                    57:b7:63:94:62:51:33:e0:94:51:be:fc:08:43:5d:
                    ce:e8:94:eb:26:bb:2d:83:c9:63:bf:7f:8c:e4:8a:
                    d9:b1:c1:9c:5f:1f:af:38:29:92:67:44:9f:f1:e7:
                    05:8d:bd:82:16:7d:3a:59:b0:8e:04:65:e2:d4:ec:
                    ac:c2:40:47:7d:0e:1b:fc:4d:e2:e2:22:43:61:d7:
                    76:1c:fe:30:81:82:5e:e2:26:83:3b:d1:40:fe:c1:
                    31:2f:10:5f:46:f9:06:6e:14:79:a2:f3:c4:50:53:
                    08:97
                Exponent: 65537 (0x10001)
        X509v3 extensions:
            X509v3 Key Usage: critical
                Digital Signature, Key Encipherment
            X509v3 Extended Key Usage: 
                TLS Web Server Authentication, TLS Web Client Authentication
            X509v3 Subject Alternative Name: critical
                DNS:localhost, IP Address:127.0.0.1
    Signature Algorithm: sha256WithRSAEncryption
         b0:6c:74:c8:34:b0:0a:e1:3e:9b:ae:8b:b5:15:b2:3c:ab:b2:
         24:2b:eb:75:49:f8:12:3f:91:66:bc:a5:7e:b7:59:55:26:04:
         d3:d3:40:7f:46:28:ca:df:94:5e:7b:2d:c8:84:d8:e3:63:00:
         f0:a8:fc:ae:9a:ed:7a:c7:cf:98:ed:6d:51:02:35:49:76:9a:
         07:59:5d:7b:4b:84:03:39:28:62:17:58:62:03:93:43:02:e3:
         84:6d:e2:f5:8b:ad:d4:c7:e0:76:57:c6:83:37:c9:bc:5c:63:
         1e:7d:cf:29:8c:8f:f5:91:64:72:65:63:ca:be:97:7c:8f:89:
         55:b9:de:a1:a0:09:0e:f1:81:c8:86:e6:7e:70:31:6d:b0:c1:
         4f:ea:81:df:db:58:69:36:fe:e6:4b:cc:52:4e:8d:85:0d:10:
         88:38:74:11:0e:33:b0:ed:02:44:c6:ed:99:6c:30:6b:28:20:
         45:32:29:9f:62:f6:75:e5:5f:c2:56:13:d8:d2:99:80:89:64:
         92:ca:6b:d8:31:7f:41:87:1b:39:07:71:14:b9:5e:51:5f:55:
         6f:e6:d5:a2:d9:5d:59:a0:42:a1:d3:6a:66:f0:1a:1a:d5:12:
         f4:9a:b4:5e:c2:17:e1:37:92:e8:e4:4c:7c:f3:99:b9:02:33:
         43:1d:bf:bf
-----BEGIN CERTIFICATE-----
MIIDDTCCAfWgAwIBAgIBATANBgkqhkiG9w0BAQsFADAtMRMwEQYDVQQKDApWZWN0
b3JpemVkMRYwFAYDVQQDDA1WZWN0b3JpemVkIENBMB4XDTIxMTAyNjEzMjAxNFoX
DTIyMTAyNjEzMjAxNFowFTETMBEGA1UECgwKVmVjdG9yaXplZDCCASIwDQYJKoZI
hvcNAQEBBQADggEPADCCAQoCggEBAMvmEUuPLonCt06wIxd3aVDsWR6igsE7/5xZ
eYt7BnSKhXr+UxvrK9MGrZVbdFxwzXvNdrm8SfjVYz6t67f3XUBICJyKlWbhzlj2
aaxbHlKa2P8rrRltLhvs+VuR+ze5k6yiAp4Kr3L9sjcRRCOtga4dcPh//saTadng
eqI7HVSWNVnEKolhPu69oXY7yGBm8bWGfiTZV7djlGJRM+CUUb78CENdzuiU6ya7
LYPJY79/jOSK2bHBnF8frzgpkmdEn/HnBY29ghZ9OlmwjgRl4tTsrMJAR30OG/xN
4uIiQ2HXdhz+MIGCXuImgzvRQP7BMS8QX0b5Bm4UeaLzxFBTCJcCAwEAAaNQME4w
DgYDVR0PAQH/BAQDAgWgMB0GA1UdJQQWMBQGCCsGAQUFBwMBBggrBgEFBQcDAjAd
BgNVHREBAf8EEzARgglsb2NhbGhvc3SHBH8AAAEwDQYJKoZIhvcNAQELBQADggEB
ALBsdMg0sArhPpuui7UVsjyrsiQr63VJ+BI/kWa8pX63WVUmBNPTQH9GKMrflF57
LciE2ONjAPCo/K6a7XrHz5jtbVECNUl2mgdZXXtLhAM5KGIXWGIDk0MC44Rt4vWL
rdTH4HZXxoM3ybxcYx59zymMj/WRZHJlY8q+l3yPiVW53qGgCQ7xgciG5n5wMW2w
wU/qgd/bWGk2/uZLzFJOjYUNEIg4dBEOM7DtAkTG7ZlsMGsoIEUyKZ9i9nXlX8JW
E9jSmYCJZJLKa9gxf0GHGzkHcRS5XlFfVW/m1aLZXVmgQqHTambwGhrVEvSatF7C
F+E3kujkTHzzmbkCM0Mdv78=
-----END CERTIFICATE-----
