Certificate:
    Data:
        Version: 3 (0x2)
        Serial Number: 1 (0x1)
        Signature Algorithm: sha256WithRSAEncryption
        Issuer: O=Vectorized, CN=Vectorized CA
        Validity
            Not Before: Nov 18 22:59:09 2021 GMT
            Not After : Nov 18 22:59:09 2022 GMT
        Subject: O=Vectorized
        Subject Public Key Info:
            Public Key Algorithm: rsaEncryption
                RSA Public-Key: (2048 bit)
                Modulus:
                    00:dc:a3:b5:56:1a:59:15:43:e4:8a:ed:82:4d:93:
                    f2:36:51:fb:b1:e8:62:65:19:9c:30:dd:07:93:55:
                    a3:67:fd:f8:43:1a:11:5b:bb:22:5e:4e:d2:33:6e:
                    9c:3f:0e:74:b9:3c:01:69:57:d7:e5:6d:3c:79:67:
                    f3:f2:83:27:a3:86:49:4d:04:33:8f:d7:a7:94:7d:
                    51:a6:b3:86:f6:8a:7f:9c:51:d5:92:15:a4:9e:91:
                    f1:d3:60:dd:8a:35:89:cb:82:d0:b1:e4:6a:67:17:
                    79:93:dc:4f:46:08:21:d4:a0:a0:99:a5:f5:16:ac:
                    38:8b:7b:ec:04:fd:f9:e2:23:06:78:5b:e0:97:2c:
                    60:5f:14:19:7f:ec:c1:66:1f:27:52:67:73:c2:da:
                    d5:cf:c9:10:b5:cc:59:b6:e5:75:84:12:5d:12:75:
                    45:15:d6:7e:01:f9:40:4f:c8:3b:07:cf:2f:c0:6c:
                    a3:bf:da:72:ea:78:0f:80:95:21:8f:18:76:cc:22:
                    b2:8f:12:b6:52:4e:a3:61:1d:fe:87:48:5c:ec:99:
                    b7:60:74:5a:ec:e4:5a:00:71:0e:45:d5:68:47:0a:
                    e1:25:dc:8f:ce:ca:b1:cb:58:35:d7:78:8d:d8:21:
                    40:33:da:59:8a:fd:ed:36:78:8e:81:d1:13:48:d1:
                    80:1d
                Exponent: 65537 (0x10001)
        X509v3 extensions:
            X509v3 Key Usage: critical
                Digital Signature, Key Encipherment
            X509v3 Extended Key Usage: 
                TLS Web Server Authentication, TLS Web Client Authentication
            X509v3 Subject Alternative Name: critical
                DNS:localhost, IP Address:127.0.0.1
    Signature Algorithm: sha256WithRSAEncryption
         7e:de:a5:33:96:4c:b1:3d:e2:03:af:ba:b1:28:4b:29:96:50:
         7f:ee:53:28:76:2e:41:4a:6f:56:8a:2a:75:76:19:d0:74:28:
         30:34:45:19:63:24:d0:37:0e:9e:a4:d5:a1:d0:74:3e:68:f9:
         c8:7f:c8:19:85:7b:bc:1d:15:10:a3:11:5c:00:1c:fe:61:04:
         fe:a1:68:48:5c:c9:c1:1b:70:c1:e4:4b:4d:d3:86:27:b9:e0:
         97:aa:cb:6b:1a:b9:bb:18:5c:48:bf:9f:a6:ca:bc:b5:b2:e0:
         0a:6d:ab:83:db:bc:c2:46:f2:da:0d:17:c1:00:39:26:c2:2f:
         2f:43:0e:ee:b8:1b:4f:16:4c:9e:1b:2d:d7:ad:57:51:3e:67:
         94:6d:a0:84:81:9d:7b:b6:7b:8e:96:37:3f:11:a1:4b:87:96:
         b9:80:a2:71:79:5a:59:58:87:a7:e0:87:ba:24:d0:34:1d:f0:
         74:35:2a:ac:d6:69:93:c7:84:26:2f:61:92:62:90:e6:ef:e7:
         a0:dc:ea:09:1e:54:5c:cc:88:f7:5b:66:1a:8c:e4:f6:77:ba:
         31:ec:3e:f6:34:ca:ac:2b:01:e0:4f:d1:f9:8b:ae:58:4b:61:
         da:72:28:fe:1e:09:84:90:5e:d0:83:95:42:07:42:8a:c9:2e:
         e6:0b:8e:2b
-----BEGIN CERTIFICATE-----
MIIDDTCCAfWgAwIBAgIBATANBgkqhkiG9w0BAQsFADAtMRMwEQYDVQQKDApWZWN0
b3JpemVkMRYwFAYDVQQDDA1WZWN0b3JpemVkIENBMB4XDTIxMTExODIyNTkwOVoX
DTIyMTExODIyNTkwOVowFTETMBEGA1UECgwKVmVjdG9yaXplZDCCASIwDQYJKoZI
hvcNAQEBBQADggEPADCCAQoCggEBANyjtVYaWRVD5Irtgk2T8jZR+7HoYmUZnDDd
B5NVo2f9+EMaEVu7Il5O0jNunD8OdLk8AWlX1+VtPHln8/KDJ6OGSU0EM4/Xp5R9
UaazhvaKf5xR1ZIVpJ6R8dNg3Yo1icuC0LHkamcXeZPcT0YIIdSgoJml9RasOIt7
7AT9+eIjBnhb4JcsYF8UGX/swWYfJ1Jnc8La1c/JELXMWbbldYQSXRJ1RRXWfgH5
QE/IOwfPL8Bso7/acup4D4CVIY8Ydswiso8StlJOo2Ed/odIXOyZt2B0WuzkWgBx
DkXVaEcK4SXcj87KsctYNdd4jdghQDPaWYr97TZ4joHRE0jRgB0CAwEAAaNQME4w
DgYDVR0PAQH/BAQDAgWgMB0GA1UdJQQWMBQGCCsGAQUFBwMBBggrBgEFBQcDAjAd
BgNVHREBAf8EEzARgglsb2NhbGhvc3SHBH8AAAEwDQYJKoZIhvcNAQELBQADggEB
AH7epTOWTLE94gOvurEoSymWUH/uUyh2LkFKb1aKKnV2GdB0KDA0RRljJNA3Dp6k
1aHQdD5o+ch/yBmFe7wdFRCjEVwAHP5hBP6haEhcycEbcMHkS03Thie54Jeqy2sa
ubsYXEi/n6bKvLWy4Aptq4PbvMJG8toNF8EAOSbCLy9DDu64G08WTJ4bLdetV1E+
Z5RtoISBnXu2e46WNz8RoUuHlrmAonF5WllYh6fgh7ok0DQd8HQ1KqzWaZPHhCYv
YZJikObv56Dc6gkeVFzMiPdbZhqM5PZ3ujHsPvY0yqwrAeBP0fmLrlhLYdpyKP4e
CYSQXtCDlUIHQorJLuYLjis=
-----END CERTIFICATE-----
